target datalayout = "e-m:e-p270:32:32-p271:32:32-p272:64:64-i64:64-i128:128-f80:128-n8:16:32:64-S128"
target triple = "x86_64-unknown-linux-gnu"

%"class.Assimp::D3MF::D3MFOpcPackage" = type { ptr, ptr, %"class.std::vector.3" }
%"class.std::vector.3" = type { %"struct.std::_Vector_base.4" }
%"struct.std::_Vector_base.4" = type { %"struct.std::_Vector_base<aiTexture *, std::allocator<aiTexture *>>::_Vector_impl" }
%"struct.std::_Vector_base<aiTexture *, std::allocator<aiTexture *>>::_Vector_impl" = type { %"struct.std::_Vector_base<aiTexture *, std::allocator<aiTexture *>>::_Vector_impl_data" }
%"struct.std::_Vector_base<aiTexture *, std::allocator<aiTexture *>>::_Vector_impl_data" = type { ptr, ptr, ptr }

@.str.10 = private unnamed_addr constant [17 x i8] c"3D/3dmodel.model\00", align 1

; Function Attrs: mustprogress uwtable
define hidden noundef zeroext i1 @_ZN6Assimp4D3MF14D3MFOpcPackage8validateEv(ptr noundef nonnull align 8 dereferenceable(40) %this) #2 align 2 {
entry:
  %retval = alloca i1, align 1
  %this.addr = alloca ptr, align 8
  store ptr %this, ptr %this.addr, align 8
  %this1 = load ptr, ptr %this.addr, align 8
  %mRootStream = getelementptr inbounds %"class.Assimp::D3MF::D3MFOpcPackage", ptr %this1, i32 0, i32 0
  %0 = load ptr, ptr %mRootStream, align 8
  %cmp = icmp eq ptr null, %0
  br i1 %cmp, label %if.then, label %lor.lhs.false

lor.lhs.false:                                    ; preds = %entry
  %mZipArchive = getelementptr inbounds %"class.Assimp::D3MF::D3MFOpcPackage", ptr %this1, i32 0, i32 1
  %1 = load ptr, ptr %mZipArchive, align 8
  %cmp2 = icmp eq ptr null, %1
  br i1 %cmp2, label %if.then, label %if.end

if.then:                                          ; preds = %lor.lhs.false, %entry
  store i1 false, ptr %retval, align 1
  br label %return

if.end:                                           ; preds = %lor.lhs.false
  %mZipArchive3 = getelementptr inbounds %"class.Assimp::D3MF::D3MFOpcPackage", ptr %this1, i32 0, i32 1
  %2 = load ptr, ptr %mZipArchive3, align 8
  %vtable = load ptr, ptr %2, align 8
  %vfn = getelementptr inbounds ptr, ptr %vtable, i64 2
  %3 = load ptr, ptr %vfn, align 8
  %call = call noundef zeroext i1 %3(ptr noundef nonnull align 8 dereferenceable(40) %2, ptr noundef @.str.10)
  store i1 %call, ptr %retval, align 1
  br label %return

return:                                           ; preds = %if.end, %if.then
  %4 = load i1, ptr %retval, align 1
  ret i1 %4
}