; Function Attrs: mustprogress uwtable
define hidden noundef zeroext i1 @_ZN6Assimp4D3MF14D3MFOpcPackage8validateEv(ptr nocapture noundef nonnull readonly align 8 dereferenceable(40) %this) local_unnamed_addr #2 align 2 {
entry:
  %0 = load ptr, ptr %this, align 8
  %cmp = icmp eq ptr %0, null
  br i1 %cmp, label %return, label %lor.lhs.false

lor.lhs.false:                                    ; preds = %entry
  %mZipArchive = getelementptr inbounds i8, ptr %this, i64 8
  %1 = load ptr, ptr %mZipArchive, align 8
  %cmp2 = icmp eq ptr %1, null
  br i1 %cmp2, label %return, label %if.end

if.end:                                           ; preds = %lor.lhs.false
  %vtable = load ptr, ptr %1, align 8
  %vfn = getelementptr inbounds i8, ptr %vtable, i64 16
  %2 = load ptr, ptr %vfn, align 8
  %call = tail call noundef zeroext i1 %2(ptr noundef nonnull align 8 dereferenceable(40) %1, ptr noundef nonnull @.str.10)
  br label %return

return:                                           ; preds = %entry, %lor.lhs.false, %if.end
  %retval.0 = phi i1 [ %call, %if.end ], [ false, %lor.lhs.false ], [ false, %entry ]
  ret i1 %retval.0
}